target datalayout = "e-m:e-p270:32:32-p271:32:32-p272:64:64-i64:64-i128:128-f80:128-n8:16:32:64-S128"
target triple = "x86_64-pc-linux-gnu"

%struct.Curl_cftype = type { ptr, i32, i32, ptr, ptr, ptr, ptr, ptr, ptr, ptr, ptr, ptr, ptr, ptr, ptr, ptr }
%struct.curltime = type { i64, i32 }
%struct.Curl_cfilter = type { ptr, ptr, ptr, ptr, i32, i8 }
%struct.cf_he_ctx = type { i32, ptr, ptr, i32, [2 x ptr], ptr, %struct.curltime }
%struct.eyeballer = type { ptr, ptr, ptr, i32, ptr, ptr, ptr, i64, %struct.curltime, i64, i32, i32, i32, i8 }

; Function Attrs: nounwind uwtable
define internal zeroext i1 @cf_he_data_pending(ptr noundef %0, ptr noundef %1) #0 {
  %3 = alloca i1, align 1
  %4 = alloca ptr, align 8
  %5 = alloca ptr, align 8
  %6 = alloca ptr, align 8
  %7 = alloca i64, align 8
  %8 = alloca i32, align 4
  %9 = alloca ptr, align 8
  store ptr %0, ptr %4, align 8, !tbaa !127
  store ptr %1, ptr %5, align 8, !tbaa !10
  call void @llvm.lifetime.start.p0(i64 8, ptr %6) #8
  %10 = load ptr, ptr %4, align 8, !tbaa !127
  %11 = getelementptr inbounds nuw %struct.Curl_cfilter, ptr %10, i32 0, i32 2
  %12 = load ptr, ptr %11, align 8, !tbaa !129
  store ptr %12, ptr %6, align 8, !tbaa !132
  call void @llvm.lifetime.start.p0(i64 8, ptr %7) #8
  %13 = load ptr, ptr %4, align 8, !tbaa !127
  %14 = getelementptr inbounds nuw %struct.Curl_cfilter, ptr %13, i32 0, i32 5
  %15 = load i8, ptr %14, align 4
  %16 = and i8 %15, 1
  %17 = zext i8 %16 to i32
  %18 = icmp ne i32 %17, 0
  br i1 %18, label %19, label %32

19:                                               ; preds = %2
  %20 = load ptr, ptr %4, align 8, !tbaa !127
  %21 = getelementptr inbounds nuw %struct.Curl_cfilter, ptr %20, i32 0, i32 1
  %22 = load ptr, ptr %21, align 8, !tbaa !151
  %23 = getelementptr inbounds nuw %struct.Curl_cfilter, ptr %22, i32 0, i32 0
  %24 = load ptr, ptr %23, align 8, !tbaa !137
  %25 = getelementptr inbounds nuw %struct.Curl_cftype, ptr %24, i32 0, i32 9
  %26 = load ptr, ptr %25, align 8, !tbaa !170
  %27 = load ptr, ptr %4, align 8, !tbaa !127
  %28 = getelementptr inbounds nuw %struct.Curl_cfilter, ptr %27, i32 0, i32 1
  %29 = load ptr, ptr %28, align 8, !tbaa !151
  %30 = load ptr, ptr %5, align 8, !tbaa !10
  %31 = call zeroext i1 %26(ptr noundef %29, ptr noundef %30)
  store i1 %31, ptr %3, align 1
  store i32 1, ptr %8, align 4
  br label %72

32:                                               ; preds = %2
  store i64 0, ptr %7, align 8, !tbaa !8
  br label %33

33:                                               ; preds = %68, %32
  %34 = load i64, ptr %7, align 8, !tbaa !8
  %35 = icmp ult i64 %34, 2
  br i1 %35, label %36, label %71

36:                                               ; preds = %33
  call void @llvm.lifetime.start.p0(i64 8, ptr %9) #8
  %37 = load ptr, ptr %6, align 8, !tbaa !132
  %38 = getelementptr inbounds nuw %struct.cf_he_ctx, ptr %37, i32 0, i32 4
  %39 = load i64, ptr %7, align 8, !tbaa !8
  %40 = getelementptr inbounds nuw [2 x ptr], ptr %38, i64 0, i64 %39
  %41 = load ptr, ptr %40, align 8, !tbaa !160
  store ptr %41, ptr %9, align 8, !tbaa !160
  %42 = load ptr, ptr %9, align 8, !tbaa !160
  %43 = icmp ne ptr %42, null
  br i1 %43, label %44, label %49

44:                                               ; preds = %36
  %45 = load ptr, ptr %9, align 8, !tbaa !160
  %46 = getelementptr inbounds nuw %struct.eyeballer, ptr %45, i32 0, i32 5
  %47 = load ptr, ptr %46, align 8, !tbaa !148
  %48 = icmp ne ptr %47, null
  br i1 %48, label %50, label %49

49:                                               ; preds = %44, %36
  store i32 4, ptr %8, align 4
  br label %65

50:                                               ; preds = %44
  %51 = load ptr, ptr %9, align 8, !tbaa !160
  %52 = getelementptr inbounds nuw %struct.eyeballer, ptr %51, i32 0, i32 5
  %53 = load ptr, ptr %52, align 8, !tbaa !148
  %54 = getelementptr inbounds nuw %struct.Curl_cfilter, ptr %53, i32 0, i32 0
  %55 = load ptr, ptr %54, align 8, !tbaa !137
  %56 = getelementptr inbounds nuw %struct.Curl_cftype, ptr %55, i32 0, i32 9
  %57 = load ptr, ptr %56, align 8, !tbaa !170
  %58 = load ptr, ptr %9, align 8, !tbaa !160
  %59 = getelementptr inbounds nuw %struct.eyeballer, ptr %58, i32 0, i32 5
  %60 = load ptr, ptr %59, align 8, !tbaa !148
  %61 = load ptr, ptr %5, align 8, !tbaa !10
  %62 = call zeroext i1 %57(ptr noundef %60, ptr noundef %61)
  br i1 %62, label %63, label %64

63:                                               ; preds = %50
  store i1 true, ptr %3, align 1
  store i32 1, ptr %8, align 4
  br label %65

64:                                               ; preds = %50
  store i32 0, ptr %8, align 4
  br label %65

65:                                               ; preds = %64, %63, %49
  call void @llvm.lifetime.end.p0(i64 8, ptr %9) #8
  %66 = load i32, ptr %8, align 4
  switch i32 %66, label %72 [
    i32 0, label %67
    i32 4, label %68
  ]

67:                                               ; preds = %65
  br label %68

68:                                               ; preds = %67, %65
  %69 = load i64, ptr %7, align 8, !tbaa !8
  %70 = add i64 %69, 1
  store i64 %70, ptr %7, align 8, !tbaa !8
  br label %33, !llvm.loop !171

71:                                               ; preds = %33
  store i1 false, ptr %3, align 1
  store i32 1, ptr %8, align 4
  br label %72

72:                                               ; preds = %71, %65, %19
  call void @llvm.lifetime.end.p0(i64 8, ptr %7) #8
  call void @llvm.lifetime.end.p0(i64 8, ptr %6) #8
  %73 = load i1, ptr %3, align 1
  ret i1 %73
}